target datalayout = "e-m:e-p270:32:32-p271:32:32-p272:64:64-i64:64-i128:128-f80:128-n8:16:32:64-S128"
target triple = "x86_64-pc-linux-gnu"

%struct.nameData = type { [64 x i8] }
%struct.RelationData = type { %struct.RelFileLocator, ptr, i32, i32, i8, i8, i8, i8, i8, i32, i32, i32, i32, ptr, ptr, i32, %struct.LockInfoData, ptr, ptr, ptr, ptr, ptr, i8, ptr, ptr, ptr, ptr, ptr, ptr, i32, ptr, i8, ptr, ptr, i32, i8, i32, ptr, i8, ptr, ptr, ptr, ptr, ptr, ptr, ptr, i32, ptr, ptr, ptr, ptr, ptr, ptr, ptr, ptr, ptr, ptr, ptr, ptr, ptr, ptr, ptr, ptr, ptr, ptr, ptr, i32, i8, ptr }
%struct.RelFileLocator = type { i32, i32, i32 }
%struct.LockInfoData = type { %struct.LockRelId }
%struct.LockRelId = type { i32, i32 }
%struct.FormData_pg_class = type { i32, %struct.nameData, i32, i32, i32, i32, i32, i32, i32, i32, float, i32, i32, i8, i8, i8, i8, i16, i16, i8, i8, i8, i8, i8, i8, i8, i8, i32, i32, i32 }

; Function Attrs: nounwind uwtable
define dso_local i32 @AlterObjectNamespace_oid(i32 noundef %0, i32 noundef %1, i32 noundef %2, ptr noundef %3) #0 {
  %5 = alloca i32, align 4
  %6 = alloca i32, align 4
  %7 = alloca i32, align 4
  %8 = alloca ptr, align 8
  %9 = alloca i32, align 4
  %10 = alloca ptr, align 8
  %11 = alloca ptr, align 8
  store i32 %0, ptr %5, align 4
  store i32 %1, ptr %6, align 4
  store i32 %2, ptr %7, align 4
  store ptr %3, ptr %8, align 8
  call void @llvm.lifetime.start.p0(i64 4, ptr %9) #6
  store i32 0, ptr %9, align 4
  %12 = load i32, ptr %5, align 4
  switch i32 %12, label %39 [
    i32 1259, label %13
    i32 1247, label %26
    i32 1255, label %31
    i32 3456, label %31
    i32 2607, label %31
    i32 2617, label %31
    i32 2616, label %31
    i32 2753, label %31
    i32 3381, label %31
    i32 3601, label %31
    i32 3600, label %31
    i32 3764, label %31
    i32 3602, label %31
  ]

13:                                               ; preds = %4
  call void @llvm.lifetime.start.p0(i64 8, ptr %10) #6
  %14 = load i32, ptr %6, align 4
  %15 = call ptr @relation_open(i32 noundef %14, i32 noundef 8)
  store ptr %15, ptr %10, align 8
  %16 = load ptr, ptr %10, align 8
  %17 = getelementptr inbounds nuw %struct.RelationData, ptr %16, i32 0, i32 13
  %18 = load ptr, ptr %17, align 8
  %19 = getelementptr inbounds nuw %struct.FormData_pg_class, ptr %18, i32 0, i32 2
  %20 = load i32, ptr %19, align 4
  store i32 %20, ptr %9, align 4
  %21 = load ptr, ptr %10, align 8
  %22 = load i32, ptr %9, align 4
  %23 = load i32, ptr %7, align 4
  %24 = load ptr, ptr %8, align 8
  call void @AlterTableNamespaceInternal(ptr noundef %21, i32 noundef %22, i32 noundef %23, ptr noundef %24)
  %25 = load ptr, ptr %10, align 8
  call void @relation_close(ptr noundef %25, i32 noundef 0)
  call void @llvm.lifetime.end.p0(i64 8, ptr %10) #6
  br label %40

26:                                               ; preds = %4
  %27 = load i32, ptr %6, align 4
  %28 = load i32, ptr %7, align 4
  %29 = load ptr, ptr %8, align 8
  %30 = call i32 @AlterTypeNamespace_oid(i32 noundef %27, i32 noundef %28, i1 noundef zeroext true, ptr noundef %29)
  store i32 %30, ptr %9, align 4
  br label %40

31:                                               ; preds = %4, %4, %4, %4, %4, %4, %4, %4, %4, %4, %4
  call void @llvm.lifetime.start.p0(i64 8, ptr %11) #6
  %32 = load i32, ptr %5, align 4
  %33 = call ptr @table_open(i32 noundef %32, i32 noundef 3)
  store ptr %33, ptr %11, align 8
  %34 = load ptr, ptr %11, align 8
  %35 = load i32, ptr %6, align 4
  %36 = load i32, ptr %7, align 4
  %37 = call i32 @AlterObjectNamespace_internal(ptr noundef %34, i32 noundef %35, i32 noundef %36)
  store i32 %37, ptr %9, align 4
  %38 = load ptr, ptr %11, align 8
  call void @table_close(ptr noundef %38, i32 noundef 3)
  call void @llvm.lifetime.end.p0(i64 8, ptr %11) #6
  br label %40

39:                                               ; preds = %4
  br label %40

40:                                               ; preds = %39, %31, %26, %13
  %41 = load i32, ptr %9, align 4
  call void @llvm.lifetime.end.p0(i64 4, ptr %9) #6
  ret i32 %41
}