; Function Attrs: nounwind uwtable
define dso_local i32 @AlterObjectNamespace_oid(i32 noundef %0, i32 noundef %1, i32 noundef %2, ptr noundef %3) local_unnamed_addr #0 {
  switch i32 %0, label %16 [
    i32 1259, label %5
    i32 1247, label %11
    i32 1255, label %13
    i32 3456, label %13
    i32 2607, label %13
    i32 2617, label %13
    i32 2616, label %13
    i32 2753, label %13
    i32 3381, label %13
    i32 3601, label %13
    i32 3600, label %13
    i32 3764, label %13
    i32 3602, label %13
  ]

5:                                                ; preds = %4
  %6 = tail call ptr @relation_open(i32 noundef %1, i32 noundef 8) #8
  %7 = getelementptr inbounds nuw i8, ptr %6, i64 56
  %8 = load ptr, ptr %7, align 8
  %9 = getelementptr inbounds nuw i8, ptr %8, i64 68
  %10 = load i32, ptr %9, align 4
  tail call void @AlterTableNamespaceInternal(ptr noundef %6, i32 noundef %10, i32 noundef %2, ptr noundef %3) #8
  tail call void @relation_close(ptr noundef %6, i32 noundef 0) #8
  br label %16

11:                                               ; preds = %4
  %12 = tail call i32 @AlterTypeNamespace_oid(i32 noundef %1, i32 noundef %2, i1 noundef zeroext true, ptr noundef %3) #8
  br label %16

13:                                               ; preds = %4, %4, %4, %4, %4, %4, %4, %4, %4, %4, %4
  %14 = tail call ptr @table_open(i32 noundef %0, i32 noundef 3) #8
  %15 = tail call fastcc i32 @AlterObjectNamespace_internal(ptr noundef %14, i32 noundef %1, i32 noundef %2)
  tail call void @table_close(ptr noundef %14, i32 noundef 3) #8
  br label %16

16:                                               ; preds = %4, %13, %11, %5
  %.0 = phi i32 [ 0, %4 ], [ %15, %13 ], [ %12, %11 ], [ %10, %5 ]
  ret i32 %.0
}